; Function Attrs: mustprogress nounwind uwtable
define internal fastcc void @_ZNSt6vectorIN12_GLOBAL__N_19FlowGraph4NodeESaIS2_EED2Ev(ptr noundef nonnull readonly align 8 captures(none) dereferenceable(24) %0) unnamed_addr #6 align 2 personality ptr @__gxx_personality_v0 {
  %2 = load ptr, ptr %0, align 8, !tbaa !455
  %3 = getelementptr inbounds nuw i8, ptr %0, i64 8
  %4 = load ptr, ptr %3, align 8, !tbaa !457
  %.not4.i.i.i = icmp eq ptr %2, %4
  br i1 %.not4.i.i.i, label %_ZSt8_DestroyIPN12_GLOBAL__N_19FlowGraph4NodeES2_EvT_S4_RSaIT0_E.exit, label %.lr.ph.i.i.i

.lr.ph.i.i.i:                                     ; preds = %1, %_ZSt8_DestroyIN12_GLOBAL__N_19FlowGraph4NodeEEvPT_.exit.i.i.i
  %.05.i.i.i = phi ptr [ %14, %_ZSt8_DestroyIN12_GLOBAL__N_19FlowGraph4NodeEEvPT_.exit.i.i.i ], [ %2, %1 ]
  %5 = getelementptr inbounds nuw i8, ptr %.05.i.i.i, i64 128
  %6 = load ptr, ptr %5, align 8, !tbaa !401
  %.not.i.i.i.i.i.i.i.i = icmp eq ptr %6, null
  br i1 %.not.i.i.i.i.i.i.i.i, label %_ZSt8_DestroyIN12_GLOBAL__N_19FlowGraph4NodeEEvPT_.exit.i.i.i, label %7

7:                                                ; preds = %.lr.ph.i.i.i
  %8 = getelementptr inbounds nuw i8, ptr %.05.i.i.i, i64 144
  %9 = load ptr, ptr %8, align 8, !tbaa !403
  %10 = ptrtoint ptr %9 to i64
  %11 = ptrtoint ptr %6 to i64
  %12 = sub i64 %10, %11
  tail call void @_ZdlPvm(ptr noundef nonnull %6, i64 noundef %12) #35
  br label %_ZSt8_DestroyIN12_GLOBAL__N_19FlowGraph4NodeEEvPT_.exit.i.i.i

_ZSt8_DestroyIN12_GLOBAL__N_19FlowGraph4NodeEEvPT_.exit.i.i.i: ; preds = %7, %.lr.ph.i.i.i
  %13 = getelementptr inbounds nuw i8, ptr %.05.i.i.i, i64 8
  tail call void @_ZNSt4pairIN5Yosys5RTLIL7SigSpecES2_ED2Ev(ptr noundef nonnull align 8 dereferenceable(112) %13) #34
  %14 = getelementptr inbounds nuw i8, ptr %.05.i.i.i, i64 176
  %.not.i.i.i = icmp eq ptr %14, %4
  br i1 %.not.i.i.i, label %_ZSt8_DestroyIPN12_GLOBAL__N_19FlowGraph4NodeES2_EvT_S4_RSaIT0_E.exitthread-pre-split, label %.lr.ph.i.i.i, !llvm.loop !458

_ZSt8_DestroyIPN12_GLOBAL__N_19FlowGraph4NodeES2_EvT_S4_RSaIT0_E.exitthread-pre-split: ; preds = %_ZSt8_DestroyIN12_GLOBAL__N_19FlowGraph4NodeEEvPT_.exit.i.i.i
  %.val.pr = load ptr, ptr %0, align 8, !tbaa !455
  br label %_ZSt8_DestroyIPN12_GLOBAL__N_19FlowGraph4NodeES2_EvT_S4_RSaIT0_E.exit

_ZSt8_DestroyIPN12_GLOBAL__N_19FlowGraph4NodeES2_EvT_S4_RSaIT0_E.exit: ; preds = %_ZSt8_DestroyIPN12_GLOBAL__N_19FlowGraph4NodeES2_EvT_S4_RSaIT0_E.exitthread-pre-split, %1
  %.val = phi ptr [ %.val.pr, %_ZSt8_DestroyIPN12_GLOBAL__N_19FlowGraph4NodeES2_EvT_S4_RSaIT0_E.exitthread-pre-split ], [ %2, %1 ]
  %.not.i.i = icmp eq ptr %.val, null
  br i1 %.not.i.i, label %_ZNSt12_Vector_baseIN12_GLOBAL__N_19FlowGraph4NodeESaIS2_EED2Ev.exit, label %15

15:                                               ; preds = %_ZSt8_DestroyIPN12_GLOBAL__N_19FlowGraph4NodeES2_EvT_S4_RSaIT0_E.exit
  %16 = getelementptr inbounds nuw i8, ptr %0, i64 16
  %.val1 = load ptr, ptr %16, align 8, !tbaa !459
  %17 = ptrtoint ptr %.val1 to i64
  %18 = ptrtoint ptr %.val to i64
  %19 = sub i64 %17, %18
  tail call void @_ZdlPvm(ptr noundef nonnull %.val, i64 noundef %19) #35
  br label %_ZNSt12_Vector_baseIN12_GLOBAL__N_19FlowGraph4NodeESaIS2_EED2Ev.exit

_ZNSt12_Vector_baseIN12_GLOBAL__N_19FlowGraph4NodeESaIS2_EED2Ev.exit: ; preds = %_ZSt8_DestroyIPN12_GLOBAL__N_19FlowGraph4NodeES2_EvT_S4_RSaIT0_E.exit, %15
  ret void
}